; Function Attrs: nounwind uwtable
define dso_local void @zend_observer_fiber_switch_notify(ptr noundef %0, ptr noundef %1) local_unnamed_addr #0 {
  %3 = getelementptr inbounds nuw i8, ptr %0, i64 40
  %4 = load i32, ptr %3, align 8, !tbaa !80
  %5 = icmp eq i32 %4, 3
  br i1 %5, label %6, label %49

6:                                                ; preds = %2
  %7 = load ptr, ptr getelementptr inbounds nuw (i8, ptr @executor_globals, i64 536), align 8, !tbaa !43
  %8 = load ptr, ptr getelementptr inbounds nuw (i8, ptr @executor_globals, i64 512), align 8, !tbaa !74
  store ptr null, ptr getelementptr inbounds nuw (i8, ptr @executor_globals, i64 536), align 8, !tbaa !43
  %.not6.i = icmp eq ptr %7, null
  br i1 %.not6.i, label %zend_observer_fcall_end_all.exit, label %.lr.ph.i

.lr.ph.i:                                         ; preds = %6, %call_end_observers.exit.i
  %.07.i = phi ptr [ %48, %call_end_observers.exit.i ], [ %7, %6 ]
  store ptr %.07.i, ptr getelementptr inbounds nuw (i8, ptr @executor_globals, i64 512), align 8, !tbaa !74
  %9 = getelementptr inbounds nuw i8, ptr %.07.i, i64 24
  %10 = load ptr, ptr %9, align 8, !tbaa !69, !nonnull !71, !noundef !71
  %11 = getelementptr inbounds nuw i8, ptr %10, i64 56
  %12 = load ptr, ptr %11, align 8, !tbaa !34
  %13 = ptrtoint ptr %12 to i64
  %14 = and i64 %13, 1
  %.not.i.i = icmp eq i64 %14, 0
  br i1 %.not.i.i, label %19, label %15

15:                                               ; preds = %.lr.ph.i
  %16 = load ptr, ptr getelementptr inbounds nuw (i8, ptr @compiler_globals, i64 512), align 8, !tbaa !68
  %17 = getelementptr inbounds i8, ptr %16, i64 %13
  %18 = load ptr, ptr %17, align 8, !tbaa !4
  br label %19

19:                                               ; preds = %15, %.lr.ph.i
  %20 = phi ptr [ %18, %15 ], [ %12, %.lr.ph.i ]
  %21 = load i8, ptr %10, align 8, !tbaa !34
  %.not17.i.i = icmp eq i8 %21, 1
  %22 = load i32, ptr @zend_observer_fcall_op_array_extension, align 4
  %23 = load i32, ptr @zend_observer_fcall_internal_function_extension, align 4
  %24 = select i1 %.not17.i.i, i32 %23, i32 %22
  %25 = sext i32 %24 to i64
  %26 = getelementptr inbounds ptr, ptr %20, i64 %25
  %27 = load i64, ptr getelementptr inbounds nuw (i8, ptr @zend_observers_fcall_list, i64 16), align 8, !tbaa !10
  %28 = getelementptr inbounds nuw ptr, ptr %26, i64 %27
  %29 = load ptr, ptr %28, align 8, !tbaa !4
  %magicptr.i.i = ptrtoint ptr %29 to i64
  switch i64 %magicptr.i.i, label %30 [
    i64 0, label %call_end_observers.exit.i
    i64 2, label %call_end_observers.exit.i
  ]

30:                                               ; preds = %19
  %31 = getelementptr inbounds nuw ptr, ptr %28, i64 %27
  br label %32

32:                                               ; preds = %35, %30
  %33 = phi ptr [ %29, %30 ], [ %36, %35 ]
  %.0.i.i = phi ptr [ %28, %30 ], [ %34, %35 ]
  tail call void %33(ptr noundef nonnull %.07.i, ptr noundef null) #8
  %34 = getelementptr inbounds nuw i8, ptr %.0.i.i, i64 8
  %.not19.i.i = icmp eq ptr %34, %31
  br i1 %.not19.i.i, label %call_end_observers.exit.loopexit.i, label %35

35:                                               ; preds = %32
  %36 = load ptr, ptr %34, align 8, !tbaa !4
  %.not20.i.i = icmp eq ptr %36, null
  br i1 %.not20.i.i, label %call_end_observers.exit.loopexit.i, label %32

call_end_observers.exit.loopexit.i:               ; preds = %35, %32
  %.pre.i = load ptr, ptr %9, align 8, !tbaa !69
  %.pre8.i = load i8, ptr %.pre.i, align 8, !tbaa !34
  br label %call_end_observers.exit.i

call_end_observers.exit.i:                        ; preds = %call_end_observers.exit.loopexit.i, %19, %19
  %37 = phi i8 [ %.pre8.i, %call_end_observers.exit.loopexit.i ], [ %21, %19 ], [ %21, %19 ]
  %38 = phi ptr [ %.pre.i, %call_end_observers.exit.loopexit.i ], [ %10, %19 ], [ %10, %19 ]
  %.not.i5.i = icmp eq i8 %37, 1
  %39 = getelementptr inbounds nuw i8, ptr %38, i64 92
  %40 = getelementptr inbounds nuw i8, ptr %.07.i, i64 44
  %.in.i.i = select i1 %.not.i5.i, ptr %40, ptr %39
  %41 = load i32, ptr %.in.i.i, align 4, !tbaa !34
  %42 = getelementptr inbounds nuw i8, ptr %38, i64 72
  %43 = load i32, ptr %42, align 8, !tbaa !34
  %44 = add i32 %41, 4
  %45 = add i32 %44, %43
  %46 = sext i32 %45 to i64
  %47 = getelementptr inbounds %struct._zval_struct, ptr %.07.i, i64 %46
  %48 = load ptr, ptr %47, align 8, !tbaa !73
  %.not.i = icmp eq ptr %48, null
  br i1 %.not.i, label %zend_observer_fcall_end_all.exit, label %.lr.ph.i

zend_observer_fcall_end_all.exit:                 ; preds = %call_end_observers.exit.i, %6
  store ptr %8, ptr getelementptr inbounds nuw (i8, ptr @executor_globals, i64 512), align 8, !tbaa !74
  br label %49

49:                                               ; preds = %zend_observer_fcall_end_all.exit, %2
  %.09 = load ptr, ptr @zend_observer_fiber_switch, align 8, !tbaa !72
  %.not10 = icmp eq ptr %.09, null
  br i1 %.not10, label %._crit_edge, label %.lr.ph

.lr.ph:                                           ; preds = %49, %.lr.ph
  %.011 = phi ptr [ %.0, %.lr.ph ], [ %.09, %49 ]
  %50 = getelementptr inbounds nuw i8, ptr %.011, i64 16
  %51 = load ptr, ptr %50, align 8, !tbaa !4
  tail call void %51(ptr noundef %0, ptr noundef %1) #8
  %.0 = load ptr, ptr %.011, align 8, !tbaa !72
  %.not = icmp eq ptr %.0, null
  br i1 %.not, label %._crit_edge, label %.lr.ph

._crit_edge:                                      ; preds = %.lr.ph, %49
  %52 = load ptr, ptr getelementptr inbounds nuw (i8, ptr @executor_globals, i64 536), align 8, !tbaa !43
  %53 = getelementptr inbounds nuw i8, ptr %0, i64 48
  store ptr %52, ptr %53, align 8, !tbaa !77
  %54 = getelementptr inbounds nuw i8, ptr %1, i64 48
  %55 = load ptr, ptr %54, align 8, !tbaa !77
  store ptr %55, ptr getelementptr inbounds nuw (i8, ptr @executor_globals, i64 536), align 8, !tbaa !43
  ret void
}